; ModuleID = 'source-C-CXX/24/538.cpp'
source_filename = "source-C-CXX/24/538.cpp"
target datalayout = "e-m:e-p270:32:32-p271:32:32-p272:64:64-i64:64-f80:128-n8:16:32:64-S128"
target triple = "x86_64-pc-linux-gnu"

%"class.std::ios_base::Init" = type { i8 }
%"class.std::basic_istream" = type { i32 (...)**, i64, %"class.std::basic_ios" }
%"class.std::basic_ios" = type { %"class.std::ios_base", %"class.std::basic_ostream"*, i8, i8, %"class.std::basic_streambuf"*, %"class.std::ctype"*, %"class.std::num_put"*, %"class.std::num_get"* }
%"class.std::ios_base" = type { i32 (...)**, i64, i64, i32, i32, i32, %"struct.std::ios_base::_Callback_list"*, %"struct.std::ios_base::_Words", [8 x %"struct.std::ios_base::_Words"], i32, %"struct.std::ios_base::_Words"*, %"class.std::locale" }
%"struct.std::ios_base::_Callback_list" = type { %"struct.std::ios_base::_Callback_list"*, void (i32, %"class.std::ios_base"*, i32)*, i32, i32 }
%"struct.std::ios_base::_Words" = type { i8*, i64 }
%"class.std::locale" = type { %"class.std::locale::_Impl"* }
%"class.std::locale::_Impl" = type { i32, %"class.std::locale::facet"**, i64, %"class.std::locale::facet"**, i8** }
%"class.std::locale::facet" = type <{ i32 (...)**, i32, [4 x i8] }>
%"class.std::basic_ostream" = type { i32 (...)**, %"class.std::basic_ios" }
%"class.std::basic_streambuf" = type { i32 (...)**, i8*, i8*, i8*, i8*, i8*, i8*, %"class.std::locale" }
%"class.std::ctype" = type <{ %"class.std::locale::facet.base", [4 x i8], %struct.__locale_struct*, i8, [7 x i8], i32*, i32*, i16*, i8, [256 x i8], [256 x i8], i8, [6 x i8] }>
%"class.std::locale::facet.base" = type <{ i32 (...)**, i32 }>
%struct.__locale_struct = type { [13 x %struct.__locale_data*], i16*, i32*, i32*, [13 x i8*] }
%struct.__locale_data = type opaque
%"class.std::num_put" = type { %"class.std::locale::facet.base", [4 x i8] }
%"class.std::num_get" = type { %"class.std::locale::facet.base", [4 x i8] }

@_ZStL8__ioinit = internal global %"class.std::ios_base::Init" zeroinitializer, align 1
@__dso_handle = external hidden global i8
@_ZSt3cin = external global %"class.std::basic_istream", align 8
@_ZSt4cout = external global %"class.std::basic_ostream", align 8
@llvm.global_ctors = appending global [1 x { i32, void ()*, i8* }] [{ i32, void ()*, i8* } { i32 65535, void ()* @_GLOBAL__sub_I_538.cpp, i8* null }]

declare void @_ZNSt8ios_base4InitC1Ev(%"class.std::ios_base::Init"* nonnull align 1 dereferenceable(1)) unnamed_addr #0

; Function Attrs: nounwind
declare void @_ZNSt8ios_base4InitD1Ev(%"class.std::ios_base::Init"* nonnull align 1 dereferenceable(1)) unnamed_addr #1

; Function Attrs: nofree nounwind
declare i32 @__cxa_atexit(void (i8*)*, i8*, i8*) local_unnamed_addr #2

; Function Attrs: mustprogress norecurse sspstrong uwtable
define dso_local i32 @main() local_unnamed_addr #3 {
  %1 = alloca i8, align 1
  %2 = alloca [1000000 x i8], align 16
  %3 = getelementptr inbounds [1000000 x i8], [1000000 x i8]* %2, i64 0, i64 0
  %4 = alloca i32, align 4
  %5 = getelementptr inbounds [1000000 x i8], [1000000 x i8]* %2, i64 0, i64 0
  call void @llvm.lifetime.start.p0i8(i64 1000000, i8* nonnull %5) #7
  %6 = bitcast i32* %4 to i8*
  call void @llvm.lifetime.start.p0i8(i64 4, i8* nonnull %6) #7
  %7 = call nonnull align 8 dereferenceable(16) %"class.std::basic_istream"* @_ZNSirsERi(%"class.std::basic_istream"* nonnull align 8 dereferenceable(16) @_ZSt3cin, i32* nonnull align 4 dereferenceable(4) %4)
  call void @llvm.memset.p0i8.i64(i8* noundef nonnull align 16 dereferenceable(1000000) %3, i8 48, i64 1000000, i1 false)
  store i8 50, i8* %5, align 16, !tbaa !5
  %8 = load i32, i32* %4, align 4, !tbaa !8
  %9 = icmp eq i32 %8, 0
  br i1 %9, label %14, label %10

10:                                               ; preds = %0
  %11 = icmp sgt i32 %8, 1
  br i1 %11, label %12, label %67

12:                                               ; preds = %10
  %13 = add nsw i32 %8, -1
  br label %16

14:                                               ; preds = %0
  %15 = call nonnull align 8 dereferenceable(8) %"class.std::basic_ostream"* @_ZNSolsEi(%"class.std::basic_ostream"* nonnull align 8 dereferenceable(8) @_ZSt4cout, i32 1)
  br label %82

16:                                               ; preds = %12, %64
  %17 = phi i32 [ %65, %64 ], [ 0, %12 ]
  br label %18

18:                                               ; preds = %18, %16
  %19 = phi i64 [ 0, %16 ], [ %45, %18 ]
  %20 = getelementptr inbounds [1000000 x i8], [1000000 x i8]* %2, i64 0, i64 %19
  %21 = bitcast i8* %20 to <16 x i8>*
  %22 = load <16 x i8>, <16 x i8>* %21, align 16, !tbaa !5
  %23 = getelementptr inbounds i8, i8* %20, i64 16
  %24 = bitcast i8* %23 to <16 x i8>*
  %25 = load <16 x i8>, <16 x i8>* %24, align 16, !tbaa !5
  %26 = shl <16 x i8> %22, <i8 1, i8 1, i8 1, i8 1, i8 1, i8 1, i8 1, i8 1, i8 1, i8 1, i8 1, i8 1, i8 1, i8 1, i8 1, i8 1>
  %27 = shl <16 x i8> %25, <i8 1, i8 1, i8 1, i8 1, i8 1, i8 1, i8 1, i8 1, i8 1, i8 1, i8 1, i8 1, i8 1, i8 1, i8 1, i8 1>
  %28 = add <16 x i8> %26, <i8 -96, i8 -96, i8 -96, i8 -96, i8 -96, i8 -96, i8 -96, i8 -96, i8 -96, i8 -96, i8 -96, i8 -96, i8 -96, i8 -96, i8 -96, i8 -96>
  %29 = add <16 x i8> %27, <i8 -96, i8 -96, i8 -96, i8 -96, i8 -96, i8 -96, i8 -96, i8 -96, i8 -96, i8 -96, i8 -96, i8 -96, i8 -96, i8 -96, i8 -96, i8 -96>
  %30 = bitcast i8* %20 to <16 x i8>*
  store <16 x i8> %28, <16 x i8>* %30, align 16, !tbaa !5
  %31 = bitcast i8* %23 to <16 x i8>*
  store <16 x i8> %29, <16 x i8>* %31, align 16, !tbaa !5
  %32 = or i64 %19, 32
  %33 = getelementptr inbounds [1000000 x i8], [1000000 x i8]* %2, i64 0, i64 %32
  %34 = bitcast i8* %33 to <16 x i8>*
  %35 = load <16 x i8>, <16 x i8>* %34, align 16, !tbaa !5
  %36 = getelementptr inbounds i8, i8* %33, i64 16
  %37 = bitcast i8* %36 to <16 x i8>*
  %38 = load <16 x i8>, <16 x i8>* %37, align 16, !tbaa !5
  %39 = shl <16 x i8> %35, <i8 1, i8 1, i8 1, i8 1, i8 1, i8 1, i8 1, i8 1, i8 1, i8 1, i8 1, i8 1, i8 1, i8 1, i8 1, i8 1>
  %40 = shl <16 x i8> %38, <i8 1, i8 1, i8 1, i8 1, i8 1, i8 1, i8 1, i8 1, i8 1, i8 1, i8 1, i8 1, i8 1, i8 1, i8 1, i8 1>
  %41 = add <16 x i8> %39, <i8 -96, i8 -96, i8 -96, i8 -96, i8 -96, i8 -96, i8 -96, i8 -96, i8 -96, i8 -96, i8 -96, i8 -96, i8 -96, i8 -96, i8 -96, i8 -96>
  %42 = add <16 x i8> %40, <i8 -96, i8 -96, i8 -96, i8 -96, i8 -96, i8 -96, i8 -96, i8 -96, i8 -96, i8 -96, i8 -96, i8 -96, i8 -96, i8 -96, i8 -96, i8 -96>
  %43 = bitcast i8* %33 to <16 x i8>*
  store <16 x i8> %41, <16 x i8>* %43, align 16, !tbaa !5
  %44 = bitcast i8* %36 to <16 x i8>*
  store <16 x i8> %42, <16 x i8>* %44, align 16, !tbaa !5
  %45 = add nuw nsw i64 %19, 64
  %46 = icmp eq i64 %45, 1000000
  br i1 %46, label %47, label %18, !llvm.loop !10

47:                                               ; preds = %18, %61
  %48 = phi i64 [ %62, %61 ], [ 0, %18 ]
  %49 = getelementptr inbounds [1000000 x i8], [1000000 x i8]* %2, i64 0, i64 %48
  %50 = load i8, i8* %49, align 1, !tbaa !5
  %51 = icmp sgt i8 %50, 9
  br i1 %51, label %52, label %58

52:                                               ; preds = %47
  %53 = add nuw i8 %50, 38
  store i8 %53, i8* %49, align 1, !tbaa !5
  %54 = add nuw nsw i64 %48, 1
  %55 = getelementptr inbounds [1000000 x i8], [1000000 x i8]* %2, i64 0, i64 %54
  %56 = load i8, i8* %55, align 1, !tbaa !5
  %57 = add i8 %56, 1
  store i8 %57, i8* %55, align 1, !tbaa !5
  br label %61

58:                                               ; preds = %47
  %59 = add nsw i8 %50, 48
  store i8 %59, i8* %49, align 1, !tbaa !5
  %60 = add nuw nsw i64 %48, 1
  br label %61

61:                                               ; preds = %52, %58
  %62 = phi i64 [ %54, %52 ], [ %60, %58 ]
  %63 = icmp eq i64 %62, 1000000
  br i1 %63, label %64, label %47, !llvm.loop !13

64:                                               ; preds = %61
  %65 = add nuw nsw i32 %17, 1
  %66 = icmp eq i32 %65, %13
  br i1 %66, label %67, label %16, !llvm.loop !14

67:                                               ; preds = %64, %10
  br label %68

68:                                               ; preds = %67, %78
  %69 = phi i64 [ %80, %78 ], [ 999999, %67 ]
  %70 = phi i32 [ %79, %78 ], [ 0, %67 ]
  %71 = getelementptr inbounds [1000000 x i8], [1000000 x i8]* %2, i64 0, i64 %69
  %72 = load i8, i8* %71, align 1, !tbaa !5
  %73 = icmp ne i8 %72, 48
  %74 = icmp eq i32 %70, 1
  %75 = or i1 %74, %73
  br i1 %75, label %76, label %78

76:                                               ; preds = %68
  call void @llvm.lifetime.start.p0i8(i64 1, i8* nonnull %1)
  store i8 %72, i8* %1, align 1, !tbaa !5
  %77 = call nonnull align 8 dereferenceable(8) %"class.std::basic_ostream"* @_ZSt16__ostream_insertIcSt11char_traitsIcEERSt13basic_ostreamIT_T0_ES6_PKS3_l(%"class.std::basic_ostream"* nonnull align 8 dereferenceable(8) @_ZSt4cout, i8* nonnull %1, i64 1)
  call void @llvm.lifetime.end.p0i8(i64 1, i8* nonnull %1)
  br label %78

78:                                               ; preds = %76, %68
  %79 = phi i32 [ 1, %76 ], [ 0, %68 ]
  %80 = add nsw i64 %69, -1
  %81 = icmp eq i64 %69, 0
  br i1 %81, label %82, label %68, !llvm.loop !15

82:                                               ; preds = %78, %14
  call void @llvm.lifetime.end.p0i8(i64 4, i8* nonnull %6) #7
  call void @llvm.lifetime.end.p0i8(i64 1000000, i8* nonnull %5) #7
  ret i32 0
}

; Function Attrs: argmemonly mustprogress nofree nosync nounwind willreturn
declare void @llvm.lifetime.start.p0i8(i64 immarg, i8* nocapture) #4

declare nonnull align 8 dereferenceable(16) %"class.std::basic_istream"* @_ZNSirsERi(%"class.std::basic_istream"* nonnull align 8 dereferenceable(16), i32* nonnull align 4 dereferenceable(4)) local_unnamed_addr #0

declare nonnull align 8 dereferenceable(8) %"class.std::basic_ostream"* @_ZNSolsEi(%"class.std::basic_ostream"* nonnull align 8 dereferenceable(8), i32) local_unnamed_addr #0

; Function Attrs: argmemonly mustprogress nofree nosync nounwind willreturn
declare void @llvm.lifetime.end.p0i8(i64 immarg, i8* nocapture) #4

declare nonnull align 8 dereferenceable(8) %"class.std::basic_ostream"* @_ZSt16__ostream_insertIcSt11char_traitsIcEERSt13basic_ostreamIT_T0_ES6_PKS3_l(%"class.std::basic_ostream"* nonnull align 8 dereferenceable(8), i8*, i64) local_unnamed_addr #0

; Function Attrs: sspstrong uwtable
define internal void @_GLOBAL__sub_I_538.cpp() #5 section ".text.startup" {
  tail call void @_ZNSt8ios_base4InitC1Ev(%"class.std::ios_base::Init"* nonnull align 1 dereferenceable(1) @_ZStL8__ioinit)
  %1 = tail call i32 @__cxa_atexit(void (i8*)* bitcast (void (%"class.std::ios_base::Init"*)* @_ZNSt8ios_base4InitD1Ev to void (i8*)*), i8* getelementptr inbounds (%"class.std::ios_base::Init", %"class.std::ios_base::Init"* @_ZStL8__ioinit, i64 0, i32 0), i8* nonnull @__dso_handle) #7
  ret void
}

; Function Attrs: argmemonly nofree nounwind willreturn writeonly
declare void @llvm.memset.p0i8.i64(i8* nocapture writeonly, i8, i64, i1 immarg) #6


!llvm.module.flags = !{!0, !1, !2, !3}
!llvm.ident = !{!4}

!0 = !{i32 1, !"wchar_size", i32 4}
!1 = !{i32 7, !"PIC Level", i32 2}
!2 = !{i32 7, !"PIE Level", i32 2}
!3 = !{i32 7, !"uwtable", i32 1}
!4 = !{!"clang version 13.0.0"}
!5 = !{!6, !6, i64 0}
!6 = !{!"omnipotent char", !7, i64 0}
!7 = !{!"Simple C++ TBAA"}
!8 = !{!9, !9, i64 0}
!9 = !{!"int", !6, i64 0}
!10 = distinct !{!10, !11, !12}
!11 = !{!"llvm.loop.mustprogress"}
!12 = !{!"llvm.loop.isvectorized", i32 1}
!13 = distinct !{!13, !11}
!14 = distinct !{!14, !11}
!15 = distinct !{!15, !11}
